target datalayout = "e-m:e-p270:32:32-p271:32:32-p272:64:64-i64:64-i128:128-f80:128-n8:16:32:64-S128"
target triple = "x86_64-pc-linux-gnu"

%struct.mbedtls_x509write_cert = type { i32, [20 x i8], i64, ptr, ptr, ptr, ptr, i32, [16 x i8], [16 x i8], ptr }

; Function Attrs: nounwind uwtable
define hidden i32 @mbedtls_x509write_crt_set_serial_raw(ptr noundef %0, ptr noundef %1, i64 noundef %2) #0 {
  %4 = alloca i32, align 4
  %5 = alloca ptr, align 8
  %6 = alloca ptr, align 8
  %7 = alloca i64, align 8
  store ptr %0, ptr %5, align 8, !tbaa !3
  store ptr %1, ptr %6, align 8, !tbaa !19
  store i64 %2, ptr %7, align 8, !tbaa !23
  %8 = load i64, ptr %7, align 8, !tbaa !23
  %9 = icmp ugt i64 %8, 20
  br i1 %9, label %10, label %11

10:                                               ; preds = %3
  store i32 -10240, ptr %4, align 4
  br label %20

11:                                               ; preds = %3
  %12 = load i64, ptr %7, align 8, !tbaa !23
  %13 = load ptr, ptr %5, align 8, !tbaa !3
  %14 = getelementptr inbounds nuw %struct.mbedtls_x509write_cert, ptr %13, i32 0, i32 2
  store i64 %12, ptr %14, align 8, !tbaa !24
  %15 = load ptr, ptr %5, align 8, !tbaa !3
  %16 = getelementptr inbounds nuw %struct.mbedtls_x509write_cert, ptr %15, i32 0, i32 1
  %17 = getelementptr inbounds [20 x i8], ptr %16, i64 0, i64 0
  %18 = load ptr, ptr %6, align 8, !tbaa !19
  %19 = load i64, ptr %7, align 8, !tbaa !23
  call void @llvm.memcpy.p0.p0.i64(ptr align 4 %17, ptr align 1 %18, i64 %19, i1 false)
  store i32 0, ptr %4, align 4
  br label %20

20:                                               ; preds = %11, %10
  %21 = load i32, ptr %4, align 4
  ret i32 %21
}