; Function Attrs: mustprogress nofree norecurse nosync nounwind willreturn memory(argmem: readwrite) uwtable
define hidden range(i32 -10240, 1) i32 @mbedtls_x509write_crt_set_serial_raw(ptr noundef writeonly captures(none) %0, ptr noundef readonly captures(none) %1, i64 noundef %2) local_unnamed_addr #5 {
  %4 = icmp ugt i64 %2, 20
  br i1 %4, label %8, label %5

5:                                                ; preds = %3
  %6 = getelementptr inbounds nuw i8, ptr %0, i64 24
  store i64 %2, ptr %6, align 8, !tbaa !15
  %7 = getelementptr inbounds nuw i8, ptr %0, i64 4
  tail call void @llvm.memcpy.p0.p0.i64(ptr nonnull align 4 %7, ptr align 1 %1, i64 %2, i1 false)
  br label %8

8:                                                ; preds = %3, %5
  %.0 = phi i32 [ 0, %5 ], [ -10240, %3 ]
  ret i32 %.0
}